target datalayout = "e-m:e-p270:32:32-p271:32:32-p272:64:64-i64:64-i128:128-f80:128-n8:16:32:64-S128"
target triple = "x86_64-pc-linux-gnu"

%class.ZHeapIterator = type { %class.ParallelObjectIteratorImpl, i8, i8, %class.ZGranuleMap, %class.ZLock, %class.GenericTaskQueueSet, %class.GenericTaskQueueSet.1, %class.ZRootsIteratorStrongColored, %class.ZRootsIteratorStrongUncolored, %class.ZRootsIteratorWeakColored, %class.TaskTerminator }
%class.ParallelObjectIteratorImpl = type { ptr }
%class.ZGranuleMap = type { i64, ptr }
%class.ZLock = type { %class.PlatformMutex }
%class.PlatformMutex = type { %union.pthread_mutex_t }
%union.pthread_mutex_t = type { %struct.__pthread_mutex_s }
%struct.__pthread_mutex_s = type { i32, i32, i32, i32, i32, i16, i16, %struct.__pthread_internal_list }
%struct.__pthread_internal_list = type { ptr, ptr }
%class.GenericTaskQueueSet = type { %class.TaskQueueSetSuperImpl, i32, ptr }
%class.TaskQueueSetSuperImpl = type { %class.TaskQueueSetSuper }
%class.TaskQueueSetSuper = type { ptr }
%class.GenericTaskQueueSet.1 = type { %class.TaskQueueSetSuperImpl, i32, ptr }
%class.ZRootsIteratorStrongColored = type { %class.ZParallelApply, %class.ZParallelApply.8, [6 x i8] }
%class.ZParallelApply = type { %class.ZOopStorageSetIteratorStrong, i8, [7 x i8] }
%class.ZOopStorageSetIteratorStrong = type <{ %class.OopStorageSetStrongParState, i8, [7 x i8] }>
%class.OopStorageSetStrongParState = type { %class.OopStorageSetParState }
%class.OopStorageSetParState = type { %struct.ValueObjArray }
%struct.ValueObjArray = type { [5 x ptr], %class.ValueObjBlock }
%class.ValueObjBlock = type { %"class.OopStorage::ParState", %class.ValueObjBlock.2 }
%"class.OopStorage::ParState" = type { %"class.OopStorage::BasicParState" }
%"class.OopStorage::BasicParState" = type { ptr, ptr, i64, i64, i32, i8, i64 }
%class.ValueObjBlock.2 = type { %"class.OopStorage::ParState", %class.ValueObjBlock.3 }
%class.ValueObjBlock.3 = type { %"class.OopStorage::ParState", %class.ValueObjBlock.4 }
%class.ValueObjBlock.4 = type { %"class.OopStorage::ParState", %class.ValueObjBlock.5 }
%class.ValueObjBlock.5 = type <{ %"class.OopStorage::ParState", %class.ValueObjBlock.6, [7 x i8] }>
%class.ValueObjBlock.6 = type { i8 }
%class.ZParallelApply.8 = type { %class.ZCLDsIteratorStrong, i8 }
%class.ZCLDsIteratorStrong = type { i8 }
%class.ZRootsIteratorStrongUncolored = type { %class.ZParallelApply.9, %class.ZParallelApply.11, [4 x i8] }
%class.ZParallelApply.9 = type { %class.ZJavaThreadsIterator, i8, [7 x i8] }
%class.ZJavaThreadsIterator = type <{ %class.ThreadsListHandle, i32, i8, [3 x i8] }>
%class.ThreadsListHandle = type { %class.SafeThreadsListPtr, %class.elapsedTimer }
%class.SafeThreadsListPtr = type <{ ptr, ptr, ptr, i8, i8, [6 x i8] }>
%class.elapsedTimer = type <{ i64, i64, i8, [7 x i8] }>
%class.ZParallelApply.11 = type { %class.ZNMethodsIteratorStrong, i8 }
%class.ZNMethodsIteratorStrong = type { %class.ZNMethodsIteratorImpl }
%class.ZNMethodsIteratorImpl = type { i8, i8, i8 }
%class.ZRootsIteratorWeakColored = type { %class.ZParallelApply.12 }
%class.ZParallelApply.12 = type { %class.ZOopStorageSetIteratorWeak, i8, [7 x i8] }
%class.ZOopStorageSetIteratorWeak = type <{ %class.OopStorageSetWeakParState, i8, [7 x i8] }>
%class.OopStorageSetWeakParState = type { %class.OopStorageSetParState.13 }
%class.OopStorageSetParState.13 = type { %struct.ValueObjArray.14 }
%struct.ValueObjArray.14 = type { [10 x ptr], %class.ValueObjBlock.15 }
%class.ValueObjBlock.15 = type { %"class.OopStorage::ParState", %class.ValueObjBlock.16 }
%class.ValueObjBlock.16 = type { %"class.OopStorage::ParState", %class.ValueObjBlock.17 }
%class.ValueObjBlock.17 = type { %"class.OopStorage::ParState", %class.ValueObjBlock.18 }
%class.ValueObjBlock.18 = type { %"class.OopStorage::ParState", %class.ValueObjBlock.19 }
%class.ValueObjBlock.19 = type { %"class.OopStorage::ParState", %class.ValueObjBlock }
%class.TaskTerminator = type { i32, ptr, [128 x i8], i32, [124 x i8], %class.Monitor, ptr }
%class.Monitor = type { %class.Mutex }
%class.Mutex = type { ptr, %class.PlatformMonitor, ptr }
%class.PlatformMonitor = type { %class.PlatformMutex, %union.pthread_cond_t }
%union.pthread_cond_t = type { %struct.__pthread_cond_s }
%struct.__pthread_cond_s = type { %union.__atomic_wide_counter, %union.__atomic_wide_counter, [2 x i32], [2 x i32], i32, i32, [2 x i32] }
%union.__atomic_wide_counter = type { i64 }
%class.ZHeapIteratorContext = type { ptr, ptr, i32, ptr, ptr }

; Function Attrs: mustprogress nounwind uwtable
define linkonce_odr hidden noundef zeroext i1 @_ZN19GenericTaskQueueSetI17OverflowTaskQueueIP7oopDescL8MEMFLAGS5ELj131072EELS3_5EE5stealEjRS2_(ptr noundef nonnull align 8 dereferenceable(24) %0, i32 noundef %1, ptr noundef nonnull align 8 dereferenceable(8) %2) #1 comdat align 2 {
  %4 = alloca i1, align 1
  %5 = alloca ptr, align 8
  %6 = alloca i32, align 4
  %7 = alloca ptr, align 8
  %8 = alloca i32, align 4
  %9 = alloca i32, align 4
  %10 = alloca i32, align 4
  store ptr %0, ptr %5, align 8
  store i32 %1, ptr %6, align 4
  store ptr %2, ptr %7, align 8
  %11 = load ptr, ptr %5, align 8
  %12 = getelementptr inbounds %class.GenericTaskQueueSet, ptr %11, i32 0, i32 1
  %13 = load i32, ptr %12, align 8
  %14 = mul i32 2, %13
  store i32 %14, ptr %8, align 4
  store i32 0, ptr %9, align 4
  br label %15

15:                                               ; preds = %33, %3
  %16 = load i32, ptr %9, align 4
  %17 = load i32, ptr %8, align 4
  %18 = icmp ult i32 %16, %17
  br i1 %18, label %19, label %36

19:                                               ; preds = %15
  %20 = load i32, ptr %6, align 4
  %21 = load ptr, ptr %7, align 8
  %22 = call noundef i32 @_ZN19GenericTaskQueueSetI17OverflowTaskQueueIP7oopDescL8MEMFLAGS5ELj131072EELS3_5EE15steal_best_of_2EjRS2_(ptr noundef nonnull align 8 dereferenceable(24) %11, i32 noundef %20, ptr noundef nonnull align 8 dereferenceable(8) %21)
  store i32 %22, ptr %10, align 4
  %23 = load i32, ptr %10, align 4
  %24 = icmp eq i32 %23, 2
  br i1 %24, label %25, label %26

25:                                               ; preds = %19
  store i1 true, ptr %4, align 1
  br label %37

26:                                               ; preds = %19
  %27 = load i32, ptr %10, align 4
  %28 = icmp eq i32 %27, 1
  br i1 %28, label %29, label %30

29:                                               ; preds = %26
  br label %31

30:                                               ; preds = %26
  br label %31

31:                                               ; preds = %30, %29
  br label %32

32:                                               ; preds = %31
  br label %33

33:                                               ; preds = %32
  %34 = load i32, ptr %9, align 4
  %35 = add i32 %34, 1
  store i32 %35, ptr %9, align 4
  br label %15, !llvm.loop !14

36:                                               ; preds = %15
  store i1 false, ptr %4, align 1
  br label %37

37:                                               ; preds = %36, %25
  %38 = load i1, ptr %4, align 1
  ret i1 %38
}

; Function Attrs: mustprogress nounwind uwtable
define linkonce_odr hidden noundef i32 @_ZNK20ZHeapIteratorContext9worker_idEv(ptr noundef nonnull align 8 dereferenceable(40) %0) #1 comdat align 2 {
  %2 = alloca ptr, align 8
  store ptr %0, ptr %2, align 8
  %3 = load ptr, ptr %2, align 8
  %4 = getelementptr inbounds %class.ZHeapIteratorContext, ptr %3, i32 0, i32 2
  %5 = load i32, ptr %4, align 8
  ret i32 %5
}

; Function Attrs: mustprogress nounwind uwtable
define hidden noundef zeroext i1 @_ZN13ZHeapIterator5stealERK20ZHeapIteratorContextRP7oopDesc(ptr noundef nonnull align 8 dereferenceable(1480) %0, ptr noundef nonnull align 8 dereferenceable(40) %1, ptr noundef nonnull align 8 dereferenceable(8) %2) #1 align 2 {
  %4 = alloca ptr, align 8
  %5 = alloca ptr, align 8
  %6 = alloca ptr, align 8
  store ptr %0, ptr %4, align 8
  store ptr %1, ptr %5, align 8
  store ptr %2, ptr %6, align 8
  %7 = load ptr, ptr %4, align 8
  %8 = getelementptr inbounds %class.ZHeapIterator, ptr %7, i32 0, i32 5
  %9 = load ptr, ptr %5, align 8
  %10 = call noundef i32 @_ZNK20ZHeapIteratorContext9worker_idEv(ptr noundef nonnull align 8 dereferenceable(40) %9)
  %11 = load ptr, ptr %6, align 8
  %12 = call noundef zeroext i1 @_ZN19GenericTaskQueueSetI17OverflowTaskQueueIP7oopDescL8MEMFLAGS5ELj131072EELS3_5EE5stealEjRS2_(ptr noundef nonnull align 8 dereferenceable(24) %8, i32 noundef %10, ptr noundef nonnull align 8 dereferenceable(8) %11)
  ret i1 %12
}