; Function Attrs: mustprogress nounwind uwtable
define hidden noundef zeroext i1 @_ZN13ZHeapIterator5stealERK20ZHeapIteratorContextRP7oopDesc(ptr noundef nonnull align 8 dereferenceable(1480) %0, ptr nocapture noundef nonnull readonly align 8 dereferenceable(40) %1, ptr noundef nonnull align 8 dereferenceable(8) %2) local_unnamed_addr #0 align 2 {
  %4 = getelementptr inbounds i8, ptr %0, i64 72
  %5 = getelementptr inbounds i8, ptr %1, i64 16
  %6 = load i32, ptr %5, align 8
  %7 = getelementptr inbounds i8, ptr %0, i64 80
  %8 = load i32, ptr %7, align 8
  %9 = shl i32 %8, 1
  %.not.i = icmp eq i32 %9, 0
  br i1 %.not.i, label %_ZN19GenericTaskQueueSetI17OverflowTaskQueueIP7oopDescL8MEMFLAGS5ELj131072EELS3_5EE5stealEjRS2_.exit, label %.lr.ph.i.preheader

.lr.ph.i.preheader:                               ; preds = %3
  %10 = tail call noundef i32 @_ZN19GenericTaskQueueSetI17OverflowTaskQueueIP7oopDescL8MEMFLAGS5ELj131072EELS3_5EE15steal_best_of_2EjRS2_(ptr noundef nonnull align 8 dereferenceable(24) %4, i32 noundef %6, ptr noundef nonnull align 8 dereferenceable(8) %2)
  %11 = icmp eq i32 %10, 2
  br i1 %11, label %_ZN19GenericTaskQueueSetI17OverflowTaskQueueIP7oopDescL8MEMFLAGS5ELj131072EELS3_5EE5stealEjRS2_.exit, label %.lr.ph

.lr.ph:                                           ; preds = %.lr.ph.i.preheader, %.lr.ph.i
  %.078.i3 = phi i32 [ %12, %.lr.ph.i ], [ 0, %.lr.ph.i.preheader ]
  %12 = add nuw i32 %.078.i3, 1
  %exitcond.not.i = icmp eq i32 %12, %9
  br i1 %exitcond.not.i, label %_ZN19GenericTaskQueueSetI17OverflowTaskQueueIP7oopDescL8MEMFLAGS5ELj131072EELS3_5EE5stealEjRS2_.exit.loopexit, label %.lr.ph.i, !llvm.loop !20

.lr.ph.i:                                         ; preds = %.lr.ph
  %13 = tail call noundef i32 @_ZN19GenericTaskQueueSetI17OverflowTaskQueueIP7oopDescL8MEMFLAGS5ELj131072EELS3_5EE15steal_best_of_2EjRS2_(ptr noundef nonnull align 8 dereferenceable(24) %4, i32 noundef %6, ptr noundef nonnull align 8 dereferenceable(8) %2)
  %14 = icmp eq i32 %13, 2
  br i1 %14, label %_ZN19GenericTaskQueueSetI17OverflowTaskQueueIP7oopDescL8MEMFLAGS5ELj131072EELS3_5EE5stealEjRS2_.exit.loopexit, label %.lr.ph, !llvm.loop !20

_ZN19GenericTaskQueueSetI17OverflowTaskQueueIP7oopDescL8MEMFLAGS5ELj131072EELS3_5EE5stealEjRS2_.exit.loopexit: ; preds = %.lr.ph, %.lr.ph.i
  %15 = icmp ult i32 %12, %9
  br label %_ZN19GenericTaskQueueSetI17OverflowTaskQueueIP7oopDescL8MEMFLAGS5ELj131072EELS3_5EE5stealEjRS2_.exit

_ZN19GenericTaskQueueSetI17OverflowTaskQueueIP7oopDescL8MEMFLAGS5ELj131072EELS3_5EE5stealEjRS2_.exit: ; preds = %_ZN19GenericTaskQueueSetI17OverflowTaskQueueIP7oopDescL8MEMFLAGS5ELj131072EELS3_5EE5stealEjRS2_.exit.loopexit, %.lr.ph.i.preheader, %3
  %.lcssa.i = phi i1 [ false, %3 ], [ true, %.lr.ph.i.preheader ], [ %15, %_ZN19GenericTaskQueueSetI17OverflowTaskQueueIP7oopDescL8MEMFLAGS5ELj131072EELS3_5EE5stealEjRS2_.exit.loopexit ]
  ret i1 %.lcssa.i
}